target datalayout = "e-m:e-p270:32:32-p271:32:32-p272:64:64-i64:64-i128:128-f80:128-n8:16:32:64-S128"
target triple = "x86_64-pc-linux-gnu"

%struct.asn1_object_st = type { ptr, ptr, i32, i32, ptr, i32 }

@.str = private unnamed_addr constant [34 x i8] c"../openssl/crypto/asn1/a_object.c\00", align 1
@.str.1 = private unnamed_addr constant [5 x i8] c"NULL\00", align 1
@__func__.i2a_ASN1_OBJECT = private unnamed_addr constant [16 x i8] c"i2a_ASN1_OBJECT\00", align 1
@.str.2 = private unnamed_addr constant [10 x i8] c"<INVALID>\00", align 1

; Function Attrs: nounwind uwtable
define i32 @i2t_ASN1_OBJECT(ptr noundef %0, i32 noundef %1, ptr noundef %2) #0 {
  %4 = alloca ptr, align 8
  %5 = alloca i32, align 4
  %6 = alloca ptr, align 8
  store ptr %0, ptr %4, align 8, !tbaa !10
  store i32 %1, ptr %5, align 4, !tbaa !16
  store ptr %2, ptr %6, align 8, !tbaa !3
  %7 = load ptr, ptr %4, align 8, !tbaa !10
  %8 = load i32, ptr %5, align 4, !tbaa !16
  %9 = load ptr, ptr %6, align 8, !tbaa !3
  %10 = call i32 @OBJ_obj2txt(ptr noundef %7, i32 noundef %8, ptr noundef %9, i32 noundef 0)
  ret i32 %10
}

; Function Attrs: nounwind uwtable
define i32 @i2a_ASN1_OBJECT(ptr noundef %0, ptr noundef %1) #0 {
  %3 = alloca i32, align 4
  %4 = alloca ptr, align 8
  %5 = alloca ptr, align 8
  %6 = alloca [80 x i8], align 16
  %7 = alloca ptr, align 8
  %8 = alloca i32, align 4
  %9 = alloca i32, align 4
  store ptr %0, ptr %4, align 8, !tbaa !25
  store ptr %1, ptr %5, align 8, !tbaa !3
  call void @llvm.lifetime.start.p0(i64 80, ptr %6) #5
  call void @llvm.lifetime.start.p0(i64 8, ptr %7) #5
  %10 = getelementptr inbounds [80 x i8], ptr %6, i64 0, i64 0
  store ptr %10, ptr %7, align 8, !tbaa !10
  call void @llvm.lifetime.start.p0(i64 4, ptr %8) #5
  %11 = load ptr, ptr %5, align 8, !tbaa !3
  %12 = icmp eq ptr %11, null
  br i1 %12, label %18, label %13

13:                                               ; preds = %2
  %14 = load ptr, ptr %5, align 8, !tbaa !3
  %15 = getelementptr inbounds nuw %struct.asn1_object_st, ptr %14, i32 0, i32 4
  %16 = load ptr, ptr %15, align 8, !tbaa !12
  %17 = icmp eq ptr %16, null
  br i1 %17, label %18, label %21

18:                                               ; preds = %13, %2
  %19 = load ptr, ptr %4, align 8, !tbaa !25
  %20 = call i32 @BIO_write(ptr noundef %19, ptr noundef @.str.1, i32 noundef 4)
  store i32 %20, ptr %3, align 4
  store i32 1, ptr %9, align 4
  br label %77

21:                                               ; preds = %13
  %22 = getelementptr inbounds [80 x i8], ptr %6, i64 0, i64 0
  %23 = load ptr, ptr %5, align 8, !tbaa !3
  %24 = call i32 @i2t_ASN1_OBJECT(ptr noundef %22, i32 noundef 80, ptr noundef %23)
  store i32 %24, ptr %8, align 4, !tbaa !16
  %25 = load i32, ptr %8, align 4, !tbaa !16
  %26 = icmp sgt i32 %25, 79
  br i1 %26, label %27, label %44

27:                                               ; preds = %21
  %28 = load i32, ptr %8, align 4, !tbaa !16
  %29 = icmp sgt i32 %28, 2147483646
  br i1 %29, label %30, label %31

30:                                               ; preds = %27
  call void @ERR_new()
  call void @ERR_set_debug(ptr noundef @.str, i32 noundef 192, ptr noundef @__func__.i2a_ASN1_OBJECT)
  call void (i32, i32, ptr, ...) @ERR_set_error(i32 noundef 13, i32 noundef 231, ptr noundef null)
  store i32 -1, ptr %3, align 4
  store i32 1, ptr %9, align 4
  br label %77

31:                                               ; preds = %27
  %32 = load i32, ptr %8, align 4, !tbaa !16
  %33 = add nsw i32 %32, 1
  %34 = sext i32 %33 to i64
  %35 = call noalias ptr @CRYPTO_malloc(i64 noundef %34, ptr noundef @.str, i32 noundef 195)
  store ptr %35, ptr %7, align 8, !tbaa !10
  %36 = icmp eq ptr %35, null
  br i1 %36, label %37, label %38

37:                                               ; preds = %31
  store i32 -1, ptr %3, align 4
  store i32 1, ptr %9, align 4
  br label %77

38:                                               ; preds = %31
  %39 = load ptr, ptr %7, align 8, !tbaa !10
  %40 = load i32, ptr %8, align 4, !tbaa !16
  %41 = add nsw i32 %40, 1
  %42 = load ptr, ptr %5, align 8, !tbaa !3
  %43 = call i32 @i2t_ASN1_OBJECT(ptr noundef %39, i32 noundef %41, ptr noundef %42)
  br label %44

44:                                               ; preds = %38, %21
  %45 = load i32, ptr %8, align 4, !tbaa !16
  %46 = icmp sle i32 %45, 0
  br i1 %46, label %47, label %65

47:                                               ; preds = %44
  %48 = load ptr, ptr %4, align 8, !tbaa !25
  %49 = call i32 @BIO_write(ptr noundef %48, ptr noundef @.str.2, i32 noundef 9)
  store i32 %49, ptr %8, align 4, !tbaa !16
  %50 = load i32, ptr %8, align 4, !tbaa !16
  %51 = icmp sgt i32 %50, 0
  br i1 %51, label %52, label %63

52:                                               ; preds = %47
  %53 = load ptr, ptr %4, align 8, !tbaa !25
  %54 = load ptr, ptr %5, align 8, !tbaa !3
  %55 = getelementptr inbounds nuw %struct.asn1_object_st, ptr %54, i32 0, i32 4
  %56 = load ptr, ptr %55, align 8, !tbaa !12
  %57 = load ptr, ptr %5, align 8, !tbaa !3
  %58 = getelementptr inbounds nuw %struct.asn1_object_st, ptr %57, i32 0, i32 3
  %59 = load i32, ptr %58, align 4, !tbaa !15
  %60 = call i32 @BIO_dump(ptr noundef %53, ptr noundef %56, i32 noundef %59)
  %61 = load i32, ptr %8, align 4, !tbaa !16
  %62 = add nsw i32 %61, %60
  store i32 %62, ptr %8, align 4, !tbaa !16
  br label %63

63:                                               ; preds = %52, %47
  %64 = load i32, ptr %8, align 4, !tbaa !16
  store i32 %64, ptr %3, align 4
  store i32 1, ptr %9, align 4
  br label %77

65:                                               ; preds = %44
  %66 = load ptr, ptr %4, align 8, !tbaa !25
  %67 = load ptr, ptr %7, align 8, !tbaa !10
  %68 = load i32, ptr %8, align 4, !tbaa !16
  %69 = call i32 @BIO_write(ptr noundef %66, ptr noundef %67, i32 noundef %68)
  %70 = load ptr, ptr %7, align 8, !tbaa !10
  %71 = getelementptr inbounds [80 x i8], ptr %6, i64 0, i64 0
  %72 = icmp ne ptr %70, %71
  br i1 %72, label %73, label %75

73:                                               ; preds = %65
  %74 = load ptr, ptr %7, align 8, !tbaa !10
  call void @CRYPTO_free(ptr noundef %74, ptr noundef @.str, i32 noundef 207)
  br label %75

75:                                               ; preds = %73, %65
  %76 = load i32, ptr %8, align 4, !tbaa !16
  store i32 %76, ptr %3, align 4
  store i32 1, ptr %9, align 4
  br label %77

77:                                               ; preds = %75, %63, %37, %30, %18
  call void @llvm.lifetime.end.p0(i64 4, ptr %8) #5
  call void @llvm.lifetime.end.p0(i64 8, ptr %7) #5
  call void @llvm.lifetime.end.p0(i64 80, ptr %6) #5
  %78 = load i32, ptr %3, align 4
  ret i32 %78
}