; Function Attrs: nounwind uwtable
define i32 @i2a_ASN1_OBJECT(ptr noundef %0, ptr noundef %1) local_unnamed_addr #0 {
  %3 = alloca [80 x i8], align 16
  call void @llvm.lifetime.start.p0(i64 80, ptr nonnull %3) #6
  %4 = icmp eq ptr %1, null
  br i1 %4, label %9, label %5

5:                                                ; preds = %2
  %6 = getelementptr inbounds nuw i8, ptr %1, i64 24
  %7 = load ptr, ptr %6, align 8, !tbaa !3
  %8 = icmp eq ptr %7, null
  br i1 %8, label %9, label %11

9:                                                ; preds = %5, %2
  %10 = tail call i32 @BIO_write(ptr noundef %0, ptr noundef nonnull @.str.1, i32 noundef 4) #6
  br label %37

11:                                               ; preds = %5
  %12 = call i32 @OBJ_obj2txt(ptr noundef nonnull %3, i32 noundef 80, ptr noundef nonnull %1, i32 noundef 0) #6
  %13 = icmp sgt i32 %12, 79
  br i1 %13, label %14, label %22

14:                                               ; preds = %11
  %15 = icmp eq i32 %12, 2147483647
  br i1 %15, label %16, label %17

16:                                               ; preds = %14
  call void @ERR_new() #6
  call void @ERR_set_debug(ptr noundef nonnull @.str, i32 noundef 192, ptr noundef nonnull @__func__.i2a_ASN1_OBJECT) #6
  call void (i32, i32, ptr, ...) @ERR_set_error(i32 noundef 13, i32 noundef 231, ptr noundef null) #6
  br label %37

17:                                               ; preds = %14
  %18 = add nuw nsw i32 %12, 1
  %19 = zext nneg i32 %18 to i64
  %20 = call noalias ptr @CRYPTO_malloc(i64 noundef %19, ptr noundef nonnull @.str, i32 noundef 195) #6
  %21 = icmp eq ptr %20, null
  br i1 %21, label %37, label %34

22:                                               ; preds = %11
  %23 = icmp slt i32 %12, 1
  br i1 %23, label %25, label %.thread32

.thread32:                                        ; preds = %22
  %24 = call i32 @BIO_write(ptr noundef %0, ptr noundef nonnull %3, i32 noundef %12) #6
  br label %37

25:                                               ; preds = %22
  %26 = call i32 @BIO_write(ptr noundef %0, ptr noundef nonnull @.str.2, i32 noundef 9) #6
  %27 = icmp sgt i32 %26, 0
  br i1 %27, label %28, label %37

28:                                               ; preds = %25
  %29 = load ptr, ptr %6, align 8, !tbaa !3
  %30 = getelementptr inbounds nuw i8, ptr %1, i64 20
  %31 = load i32, ptr %30, align 4, !tbaa !10
  %32 = call i32 @BIO_dump(ptr noundef %0, ptr noundef %29, i32 noundef %31) #6
  %33 = add nsw i32 %32, %26
  br label %37

34:                                               ; preds = %17
  %35 = call i32 @OBJ_obj2txt(ptr noundef nonnull %20, i32 noundef %18, ptr noundef nonnull %1, i32 noundef 0) #6
  %36 = call i32 @BIO_write(ptr noundef %0, ptr noundef nonnull %20, i32 noundef %12) #6
  call void @CRYPTO_free(ptr noundef nonnull %20, ptr noundef nonnull @.str, i32 noundef 207) #6
  br label %37

37:                                               ; preds = %.thread32, %34, %25, %28, %17, %16, %9
  %.025 = phi i32 [ %10, %9 ], [ -1, %16 ], [ -1, %17 ], [ %33, %28 ], [ %26, %25 ], [ %12, %34 ], [ %12, %.thread32 ]
  call void @llvm.lifetime.end.p0(i64 80, ptr nonnull %3) #6
  ret i32 %.025
}